target datalayout = "e-m:e-p270:32:32-p271:32:32-p272:64:64-i64:64-i128:128-f80:128-n8:16:32:64-S128"
target triple = "x86_64-pc-linux-gnu"

%struct.VuDevRegion = type { i64, i64, i64, i64, i64 }
%struct.VuDev = type { i32, i32, ptr, ptr, %struct.VuDevInflightInfo, i32, %union.pthread_mutex_t, i32, i64, ptr, i64, i64, i8, i16, ptr, ptr, ptr, ptr, ptr, i32, i8 }
%struct.VuDevInflightInfo = type { i32, ptr, i64 }
%union.pthread_mutex_t = type { %struct.__pthread_mutex_s }
%struct.__pthread_mutex_s = type { i32, i32, i32, i32, i32, i16, i16, %struct.__pthread_internal_list }
%struct.__pthread_internal_list = type { ptr, ptr }
%struct.VhostUserMemoryRegion = type { i64, i64, i64, i64 }
%struct.statfs = type { i64, i64, i64, i64, i64, i64, i64, %struct.__fsid_t, i64, i64, i64, [4 x i64] }
%struct.__fsid_t = type { [2 x i32] }

@.str.65 = private unnamed_addr constant [50 x i8] c"regions with overlapping guest physical addresses\00", align 1
@.str.66 = private unnamed_addr constant [22 x i8] c"region mmap error: %s\00", align 1

; Function Attrs: nounwind uwtable
define internal i64 @get_fd_hugepagesize(i32 noundef %0) #0 {
  %2 = alloca i64, align 8
  %3 = alloca i32, align 4
  %4 = alloca %struct.statfs, align 8
  %5 = alloca i32, align 4
  %6 = alloca i32, align 4
  store i32 %0, ptr %3, align 4
  call void @llvm.lifetime.start.p0(i64 120, ptr %4) #13
  call void @llvm.memset.p0.i64(ptr align 8 %4, i8 0, i64 120, i1 false), !annotation !4
  call void @llvm.lifetime.start.p0(i64 4, ptr %5) #13
  store i32 0, ptr %5, align 4, !annotation !4
  br label %7

7:                                                ; preds = %17, %1
  %8 = load i32, ptr %3, align 4
  %9 = call i32 @fstatfs64(i32 noundef %8, ptr noundef %4) #13
  store i32 %9, ptr %5, align 4
  br label %10

10:                                               ; preds = %7
  %11 = load i32, ptr %5, align 4
  %12 = icmp ne i32 %11, 0
  br i1 %12, label %13, label %17

13:                                               ; preds = %10
  %14 = call ptr @__errno_location() #14
  %15 = load i32, ptr %14, align 4
  %16 = icmp eq i32 %15, 4
  br label %17

17:                                               ; preds = %13, %10
  %18 = phi i1 [ false, %10 ], [ %16, %13 ]
  br i1 %18, label %7, label %19

19:                                               ; preds = %17
  %20 = load i32, ptr %5, align 4
  %21 = icmp ne i32 %20, 0
  br i1 %21, label %30, label %22

22:                                               ; preds = %19
  %23 = getelementptr inbounds nuw %struct.statfs, ptr %4, i32 0, i32 0
  %24 = load i64, ptr %23, align 8
  %25 = trunc i64 %24 to i32
  %26 = icmp eq i32 %25, -1786488586
  br i1 %26, label %27, label %30

27:                                               ; preds = %22
  %28 = getelementptr inbounds nuw %struct.statfs, ptr %4, i32 0, i32 1
  %29 = load i64, ptr %28, align 8
  store i64 %29, ptr %2, align 8
  store i32 1, ptr %6, align 4
  br label %31

30:                                               ; preds = %22, %19
  store i64 0, ptr %2, align 8
  store i32 1, ptr %6, align 4
  br label %31

31:                                               ; preds = %30, %27
  call void @llvm.lifetime.end.p0(i64 4, ptr %5) #13
  call void @llvm.lifetime.end.p0(i64 120, ptr %4) #13
  %32 = load i64, ptr %2, align 8
  ret i64 %32
}

; Function Attrs: nounwind uwtable
define internal void @_vu_add_mem_reg(ptr noundef %0, ptr noundef %1, i32 noundef %2) #0 {
  %4 = alloca ptr, align 8
  %5 = alloca ptr, align 8
  %6 = alloca i32, align 4
  %7 = alloca i64, align 8
  %8 = alloca i64, align 8
  %9 = alloca i32, align 4
  %10 = alloca i64, align 8
  %11 = alloca i64, align 8
  %12 = alloca i64, align 8
  %13 = alloca ptr, align 8
  %14 = alloca ptr, align 8
  %15 = alloca i32, align 4
  %16 = alloca i32, align 4
  %17 = alloca i32, align 4
  %18 = alloca i32, align 4
  %19 = alloca ptr, align 8
  %20 = alloca i32, align 4
  store ptr %0, ptr %4, align 8
  store ptr %1, ptr %5, align 8
  store i32 %2, ptr %6, align 4
  call void @llvm.lifetime.start.p0(i64 8, ptr %7) #13
  %21 = load ptr, ptr %5, align 8
  %22 = getelementptr inbounds nuw %struct.VhostUserMemoryRegion, ptr %21, i32 0, i32 0
  %23 = load i64, ptr %22, align 8
  store i64 %23, ptr %7, align 8
  call void @llvm.lifetime.start.p0(i64 8, ptr %8) #13
  %24 = load i64, ptr %7, align 8
  %25 = load ptr, ptr %5, align 8
  %26 = getelementptr inbounds nuw %struct.VhostUserMemoryRegion, ptr %25, i32 0, i32 1
  %27 = load i64, ptr %26, align 8
  %28 = add i64 %24, %27
  store i64 %28, ptr %8, align 8
  call void @llvm.lifetime.start.p0(i64 4, ptr %9) #13
  store i32 3, ptr %9, align 4
  call void @llvm.lifetime.start.p0(i64 8, ptr %10) #13
  store i64 0, ptr %10, align 8, !annotation !4
  call void @llvm.lifetime.start.p0(i64 8, ptr %11) #13
  store i64 0, ptr %11, align 8, !annotation !4
  call void @llvm.lifetime.start.p0(i64 8, ptr %12) #13
  store i64 0, ptr %12, align 8, !annotation !4
  call void @llvm.lifetime.start.p0(i64 8, ptr %13) #13
  store ptr null, ptr %13, align 8, !annotation !4
  call void @llvm.lifetime.start.p0(i64 8, ptr %14) #13
  store ptr null, ptr %14, align 8, !annotation !4
  call void @llvm.lifetime.start.p0(i64 4, ptr %15) #13
  store i32 0, ptr %15, align 4
  call void @llvm.lifetime.start.p0(i64 4, ptr %16) #13
  %29 = load ptr, ptr %4, align 8
  %30 = getelementptr inbounds nuw %struct.VuDev, ptr %29, i32 0, i32 1
  %31 = load i32, ptr %30, align 4
  %32 = sub i32 %31, 1
  store i32 %32, ptr %16, align 4
  call void @llvm.lifetime.start.p0(i64 4, ptr %17) #13
  store i32 0, ptr %17, align 4, !annotation !4
  br label %33

33:                                               ; preds = %3
  br label %34

34:                                               ; preds = %33
  br label %35

35:                                               ; preds = %34
  br label %36

36:                                               ; preds = %35
  br label %37

37:                                               ; preds = %36
  br label %38

38:                                               ; preds = %37
  br label %39

39:                                               ; preds = %38
  br label %40

40:                                               ; preds = %39
  br label %41

41:                                               ; preds = %40
  br label %42

42:                                               ; preds = %41
  br label %43

43:                                               ; preds = %42
  br label %44

44:                                               ; preds = %43
  br label %45

45:                                               ; preds = %44
  br label %46

46:                                               ; preds = %45
  br label %47

47:                                               ; preds = %46
  %48 = load ptr, ptr %4, align 8
  %49 = getelementptr inbounds nuw %struct.VuDev, ptr %48, i32 0, i32 20
  %50 = load i8, ptr %49, align 4, !range !5, !noundef !6
  %51 = trunc i8 %50 to i1
  br i1 %51, label %52, label %53

52:                                               ; preds = %47
  store i32 0, ptr %9, align 4
  br label %53

53:                                               ; preds = %52, %47
  br label %54

54:                                               ; preds = %113, %53
  %55 = load i32, ptr %15, align 4
  %56 = load i32, ptr %16, align 4
  %57 = icmp sle i32 %55, %56
  br i1 %57, label %58, label %114

58:                                               ; preds = %54
  call void @llvm.lifetime.start.p0(i64 4, ptr %18) #13
  %59 = load i32, ptr %15, align 4
  %60 = load i32, ptr %16, align 4
  %61 = load i32, ptr %15, align 4
  %62 = sub i32 %60, %61
  %63 = sdiv i32 %62, 2
  %64 = add i32 %59, %63
  store i32 %64, ptr %18, align 4
  call void @llvm.lifetime.start.p0(i64 8, ptr %19) #13
  %65 = load ptr, ptr %4, align 8
  %66 = getelementptr inbounds nuw %struct.VuDev, ptr %65, i32 0, i32 2
  %67 = load ptr, ptr %66, align 8
  %68 = load i32, ptr %18, align 4
  %69 = zext i32 %68 to i64
  %70 = getelementptr inbounds nuw %struct.VuDevRegion, ptr %67, i64 %69
  store ptr %70, ptr %19, align 8
  %71 = load i64, ptr %7, align 8
  %72 = load ptr, ptr %19, align 8
  %73 = getelementptr inbounds nuw %struct.VuDevRegion, ptr %72, i32 0, i32 0
  %74 = load i64, ptr %73, align 8
  %75 = load ptr, ptr %19, align 8
  %76 = getelementptr inbounds nuw %struct.VuDevRegion, ptr %75, i32 0, i32 1
  %77 = load i64, ptr %76, align 8
  %78 = add i64 %74, %77
  %79 = icmp ult i64 %71, %78
  br i1 %79, label %80, label %88

80:                                               ; preds = %58
  %81 = load ptr, ptr %19, align 8
  %82 = getelementptr inbounds nuw %struct.VuDevRegion, ptr %81, i32 0, i32 0
  %83 = load i64, ptr %82, align 8
  %84 = load i64, ptr %8, align 8
  %85 = icmp ult i64 %83, %84
  br i1 %85, label %86, label %88

86:                                               ; preds = %80
  %87 = load ptr, ptr %4, align 8
  call void (ptr, ptr, ...) @vu_panic(ptr noundef %87, ptr noundef @.str.65)
  store i32 1, ptr %20, align 4
  br label %111

88:                                               ; preds = %80, %58
  %89 = load i64, ptr %7, align 8
  %90 = load ptr, ptr %19, align 8
  %91 = getelementptr inbounds nuw %struct.VuDevRegion, ptr %90, i32 0, i32 0
  %92 = load i64, ptr %91, align 8
  %93 = load ptr, ptr %19, align 8
  %94 = getelementptr inbounds nuw %struct.VuDevRegion, ptr %93, i32 0, i32 1
  %95 = load i64, ptr %94, align 8
  %96 = add i64 %92, %95
  %97 = icmp uge i64 %89, %96
  br i1 %97, label %98, label %101

98:                                               ; preds = %88
  %99 = load i32, ptr %18, align 4
  %100 = add i32 %99, 1
  store i32 %100, ptr %15, align 4
  br label %101

101:                                              ; preds = %98, %88
  %102 = load i64, ptr %7, align 8
  %103 = load ptr, ptr %19, align 8
  %104 = getelementptr inbounds nuw %struct.VuDevRegion, ptr %103, i32 0, i32 0
  %105 = load i64, ptr %104, align 8
  %106 = icmp ult i64 %102, %105
  br i1 %106, label %107, label %110

107:                                              ; preds = %101
  %108 = load i32, ptr %18, align 4
  %109 = sub i32 %108, 1
  store i32 %109, ptr %16, align 4
  br label %110

110:                                              ; preds = %107, %101
  store i32 0, ptr %20, align 4
  br label %111

111:                                              ; preds = %110, %86
  call void @llvm.lifetime.end.p0(i64 8, ptr %19) #13
  call void @llvm.lifetime.end.p0(i64 4, ptr %18) #13
  %112 = load i32, ptr %20, align 4
  switch i32 %112, label %228 [
    i32 0, label %113
  ]

113:                                              ; preds = %111
  br label %54

114:                                              ; preds = %54
  %115 = load i32, ptr %15, align 4
  store i32 %115, ptr %17, align 4
  %116 = load i32, ptr %6, align 4
  %117 = call i64 @get_fd_hugepagesize(i32 noundef %116)
  store i64 %117, ptr %12, align 8
  %118 = load i64, ptr %12, align 8
  %119 = icmp ne i64 %118, 0
  br i1 %119, label %120, label %133

120:                                              ; preds = %114
  %121 = load ptr, ptr %5, align 8
  %122 = getelementptr inbounds nuw %struct.VhostUserMemoryRegion, ptr %121, i32 0, i32 3
  %123 = load i64, ptr %122, align 8
  %124 = load i64, ptr %12, align 8
  %125 = udiv i64 %123, %124
  %126 = load i64, ptr %12, align 8
  %127 = mul i64 %125, %126
  store i64 %127, ptr %11, align 8
  %128 = load ptr, ptr %5, align 8
  %129 = getelementptr inbounds nuw %struct.VhostUserMemoryRegion, ptr %128, i32 0, i32 3
  %130 = load i64, ptr %129, align 8
  %131 = load i64, ptr %11, align 8
  %132 = sub i64 %130, %131
  store i64 %132, ptr %10, align 8
  br label %137

133:                                              ; preds = %114
  %134 = load ptr, ptr %5, align 8
  %135 = getelementptr inbounds nuw %struct.VhostUserMemoryRegion, ptr %134, i32 0, i32 3
  %136 = load i64, ptr %135, align 8
  store i64 %136, ptr %11, align 8
  store i64 0, ptr %10, align 8
  br label %137

137:                                              ; preds = %133, %120
  br label %138

138:                                              ; preds = %137
  br label %139

139:                                              ; preds = %138
  br label %140

140:                                              ; preds = %139
  br label %141

141:                                              ; preds = %140
  br label %142

142:                                              ; preds = %141
  br label %143

143:                                              ; preds = %142
  %144 = load ptr, ptr %5, align 8
  %145 = getelementptr inbounds nuw %struct.VhostUserMemoryRegion, ptr %144, i32 0, i32 1
  %146 = load i64, ptr %145, align 8
  %147 = load i64, ptr %10, align 8
  %148 = add i64 %146, %147
  %149 = load i32, ptr %9, align 4
  %150 = load i32, ptr %6, align 4
  %151 = load i64, ptr %11, align 8
  %152 = call ptr @mmap64(ptr noundef null, i64 noundef %148, i32 noundef %149, i32 noundef 16385, i32 noundef %150, i64 noundef %151) #13
  store ptr %152, ptr %14, align 8
  %153 = load ptr, ptr %14, align 8
  %154 = icmp eq ptr %153, inttoptr (i64 -1 to ptr)
  br i1 %154, label %155, label %160

155:                                              ; preds = %143
  %156 = load ptr, ptr %4, align 8
  %157 = call ptr @__errno_location() #14
  %158 = load i32, ptr %157, align 4
  %159 = call ptr @strerror(i32 noundef %158) #13
  call void (ptr, ptr, ...) @vu_panic(ptr noundef %156, ptr noundef @.str.66, ptr noundef %159)
  store i32 1, ptr %20, align 4
  br label %228

160:                                              ; preds = %143
  br label %161

161:                                              ; preds = %160
  br label %162

162:                                              ; preds = %161
  br label %163

163:                                              ; preds = %162
  %164 = load ptr, ptr %14, align 8
  %165 = load ptr, ptr %5, align 8
  %166 = getelementptr inbounds nuw %struct.VhostUserMemoryRegion, ptr %165, i32 0, i32 1
  %167 = load i64, ptr %166, align 8
  %168 = load i64, ptr %10, align 8
  %169 = add i64 %167, %168
  %170 = call i32 @madvise(ptr noundef %164, i64 noundef %169, i32 noundef 16) #13
  %171 = load ptr, ptr %4, align 8
  %172 = getelementptr inbounds nuw %struct.VuDev, ptr %171, i32 0, i32 2
  %173 = load ptr, ptr %172, align 8
  %174 = load i32, ptr %17, align 4
  %175 = zext i32 %174 to i64
  %176 = getelementptr inbounds nuw %struct.VuDevRegion, ptr %173, i64 %175
  store ptr %176, ptr %13, align 8
  %177 = load ptr, ptr %13, align 8
  %178 = getelementptr inbounds %struct.VuDevRegion, ptr %177, i64 1
  %179 = load ptr, ptr %13, align 8
  %180 = load ptr, ptr %4, align 8
  %181 = getelementptr inbounds nuw %struct.VuDev, ptr %180, i32 0, i32 1
  %182 = load i32, ptr %181, align 4
  %183 = load i32, ptr %17, align 4
  %184 = sub i32 %182, %183
  %185 = zext i32 %184 to i64
  %186 = mul i64 40, %185
  call void @llvm.memmove.p0.p0.i64(ptr align 8 %178, ptr align 8 %179, i64 %186, i1 false)
  %187 = load ptr, ptr %5, align 8
  %188 = getelementptr inbounds nuw %struct.VhostUserMemoryRegion, ptr %187, i32 0, i32 0
  %189 = load i64, ptr %188, align 8
  %190 = load ptr, ptr %13, align 8
  %191 = getelementptr inbounds nuw %struct.VuDevRegion, ptr %190, i32 0, i32 0
  store i64 %189, ptr %191, align 8
  %192 = load ptr, ptr %5, align 8
  %193 = getelementptr inbounds nuw %struct.VhostUserMemoryRegion, ptr %192, i32 0, i32 1
  %194 = load i64, ptr %193, align 8
  %195 = load ptr, ptr %13, align 8
  %196 = getelementptr inbounds nuw %struct.VuDevRegion, ptr %195, i32 0, i32 1
  store i64 %194, ptr %196, align 8
  %197 = load ptr, ptr %5, align 8
  %198 = getelementptr inbounds nuw %struct.VhostUserMemoryRegion, ptr %197, i32 0, i32 2
  %199 = load i64, ptr %198, align 8
  %200 = load ptr, ptr %13, align 8
  %201 = getelementptr inbounds nuw %struct.VuDevRegion, ptr %200, i32 0, i32 2
  store i64 %199, ptr %201, align 8
  %202 = load ptr, ptr %14, align 8
  %203 = ptrtoint ptr %202 to i64
  %204 = load ptr, ptr %13, align 8
  %205 = getelementptr inbounds nuw %struct.VuDevRegion, ptr %204, i32 0, i32 4
  store i64 %203, ptr %205, align 8
  %206 = load i64, ptr %10, align 8
  %207 = load ptr, ptr %13, align 8
  %208 = getelementptr inbounds nuw %struct.VuDevRegion, ptr %207, i32 0, i32 3
  store i64 %206, ptr %208, align 8
  %209 = load ptr, ptr %4, align 8
  %210 = getelementptr inbounds nuw %struct.VuDev, ptr %209, i32 0, i32 1
  %211 = load i32, ptr %210, align 4
  %212 = add i32 %211, 1
  store i32 %212, ptr %210, align 4
  %213 = load ptr, ptr %4, align 8
  %214 = getelementptr inbounds nuw %struct.VuDev, ptr %213, i32 0, i32 20
  %215 = load i8, ptr %214, align 4, !range !5, !noundef !6
  %216 = trunc i8 %215 to i1
  br i1 %216, label %217, label %227

217:                                              ; preds = %163
  %218 = load ptr, ptr %13, align 8
  %219 = getelementptr inbounds nuw %struct.VuDevRegion, ptr %218, i32 0, i32 4
  %220 = load i64, ptr %219, align 8
  %221 = load ptr, ptr %13, align 8
  %222 = getelementptr inbounds nuw %struct.VuDevRegion, ptr %221, i32 0, i32 3
  %223 = load i64, ptr %222, align 8
  %224 = add i64 %220, %223
  %225 = load ptr, ptr %5, align 8
  %226 = getelementptr inbounds nuw %struct.VhostUserMemoryRegion, ptr %225, i32 0, i32 2
  store i64 %224, ptr %226, align 8
  br label %227

227:                                              ; preds = %217, %163
  store i32 0, ptr %20, align 4
  br label %228

228:                                              ; preds = %227, %155, %111
  call void @llvm.lifetime.end.p0(i64 4, ptr %17) #13
  call void @llvm.lifetime.end.p0(i64 4, ptr %16) #13
  call void @llvm.lifetime.end.p0(i64 4, ptr %15) #13
  call void @llvm.lifetime.end.p0(i64 8, ptr %14) #13
  call void @llvm.lifetime.end.p0(i64 8, ptr %13) #13
  call void @llvm.lifetime.end.p0(i64 8, ptr %12) #13
  call void @llvm.lifetime.end.p0(i64 8, ptr %11) #13
  call void @llvm.lifetime.end.p0(i64 8, ptr %10) #13
  call void @llvm.lifetime.end.p0(i64 4, ptr %9) #13
  call void @llvm.lifetime.end.p0(i64 8, ptr %8) #13
  call void @llvm.lifetime.end.p0(i64 8, ptr %7) #13
  %229 = load i32, ptr %20, align 4
  switch i32 %229, label %231 [
    i32 0, label %230
    i32 1, label %230
  ]

230:                                              ; preds = %228, %228
  ret void

231:                                              ; preds = %228
  unreachable
}