; Function Attrs: nounwind uwtable
define internal fastcc void @_vu_add_mem_reg(ptr noundef %0, ptr noundef nonnull captures(none) %1, i32 noundef %2) unnamed_addr #3 {
  %4 = alloca %struct.statfs, align 8
  %5 = load i64, ptr %1, align 8
  %6 = getelementptr inbounds nuw i8, ptr %1, i64 8
  %7 = load i64, ptr %6, align 8
  %8 = add i64 %7, %5
  %9 = getelementptr inbounds nuw i8, ptr %0, i64 4
  %10 = load i32, ptr %9, align 4
  %11 = add i32 %10, -1
  %12 = getelementptr inbounds nuw i8, ptr %0, i64 188
  %13 = load i8, ptr %12, align 4, !range !5, !noundef !6
  %14 = trunc nuw i8 %13 to i1
  %spec.select = select i1 %14, i32 0, i32 3
  %.not83 = icmp slt i32 %11, 0
  br i1 %.not83, label %._crit_edge, label %.lr.ph

.lr.ph:                                           ; preds = %3
  %15 = getelementptr inbounds nuw i8, ptr %0, i64 8
  %16 = load ptr, ptr %15, align 8
  br label %17

17:                                               ; preds = %.lr.ph, %29
  %.06785 = phi i32 [ %11, %.lr.ph ], [ %.2, %29 ]
  %.06884 = phi i32 [ 0, %.lr.ph ], [ %spec.select76, %29 ]
  %18 = sub i32 %.06785, %.06884
  %19 = sdiv i32 %18, 2
  %20 = add i32 %19, %.06884
  %21 = zext i32 %20 to i64
  %22 = getelementptr inbounds nuw %struct.VuDevRegion, ptr %16, i64 %21
  %23 = load i64, ptr %22, align 8
  %24 = getelementptr inbounds nuw i8, ptr %22, i64 8
  %25 = load i64, ptr %24, align 8
  %26 = add i64 %25, %23
  %27 = icmp ult i64 %5, %26
  %28 = icmp ult i64 %23, %8
  %or.cond = select i1 %27, i1 %28, i1 false
  br i1 %or.cond, label %.thread, label %29

.thread:                                          ; preds = %17
  tail call void (ptr, ptr, ...) @vu_panic(ptr noundef nonnull %0, ptr noundef nonnull @.str.65)
  br label %88

29:                                               ; preds = %17
  %30 = add i32 %20, 1
  %spec.select76 = select i1 %27, i32 %.06884, i32 %30
  %31 = icmp ult i64 %5, %23
  %32 = add i32 %20, -1
  %.2 = select i1 %31, i32 %32, i32 %.06785
  %.not = icmp sgt i32 %spec.select76, %.2
  br i1 %.not, label %._crit_edge, label %17

._crit_edge:                                      ; preds = %29, %3
  %.068.lcssa = phi i32 [ 0, %3 ], [ %spec.select76, %29 ]
  call void @llvm.lifetime.start.p0(i64 120, ptr nonnull %4) #21
  call void @llvm.memset.p0.i64(ptr noundef nonnull align 8 dereferenceable(120) %4, i8 0, i64 120, i1 false), !annotation !4
  br label %33

33:                                               ; preds = %35, %._crit_edge
  %34 = call i32 @fstatfs64(i32 noundef %2, ptr noundef nonnull %4) #21
  %.not.i.not.not.not.not.not = icmp ne i32 %34, 0
  br i1 %.not.i.not.not.not.not.not, label %35, label %get_fd_hugepagesize.exit

35:                                               ; preds = %33
  %36 = tail call ptr @__errno_location() #22
  %37 = load i32, ptr %36, align 4
  %38 = icmp eq i32 %37, 4
  br i1 %38, label %33, label %get_fd_hugepagesize.exit

get_fd_hugepagesize.exit:                         ; preds = %33, %35
  %39 = load i64, ptr %4, align 8
  %40 = and i64 %39, 4294967295
  %41 = icmp ne i64 %40, 2508478710
  %or.cond.i.not = select i1 %.not.i.not.not.not.not.not, i1 true, i1 %41
  %42 = getelementptr inbounds nuw i8, ptr %4, i64 8
  %43 = load i64, ptr %42, align 8
  call void @llvm.lifetime.end.p0(i64 120, ptr nonnull %4) #21
  %.not7480 = icmp eq i64 %43, 0
  %.not74 = select i1 %or.cond.i.not, i1 true, i1 %.not7480
  %44 = getelementptr inbounds nuw i8, ptr %1, i64 24
  %45 = load i64, ptr %44, align 8
  %.fr = freeze i64 %45
  br i1 %.not74, label %49, label %46

46:                                               ; preds = %get_fd_hugepagesize.exit
  %47 = urem i64 %.fr, %43
  %48 = sub nuw i64 %.fr, %47
  br label %49

49:                                               ; preds = %get_fd_hugepagesize.exit, %46
  %.071 = phi i64 [ %48, %46 ], [ %.fr, %get_fd_hugepagesize.exit ]
  %.066 = phi i64 [ %47, %46 ], [ 0, %get_fd_hugepagesize.exit ]
  %50 = load i64, ptr %6, align 8
  %51 = add i64 %50, %.066
  %52 = call ptr @mmap64(ptr noundef null, i64 noundef %51, i32 noundef %spec.select, i32 noundef 16385, i32 noundef %2, i64 noundef %.071) #21
  %53 = icmp eq ptr %52, inttoptr (i64 -1 to ptr)
  br i1 %53, label %54, label %58

54:                                               ; preds = %49
  %55 = tail call ptr @__errno_location() #22
  %56 = load i32, ptr %55, align 4
  %57 = call ptr @strerror(i32 noundef %56) #21
  call void (ptr, ptr, ...) @vu_panic(ptr noundef %0, ptr noundef nonnull @.str.66, ptr noundef %57)
  br label %88

58:                                               ; preds = %49
  %59 = load i64, ptr %6, align 8
  %60 = add i64 %59, %.066
  %61 = call i32 @madvise(ptr noundef %52, i64 noundef %60, i32 noundef 16) #21
  %62 = getelementptr inbounds nuw i8, ptr %0, i64 8
  %63 = load ptr, ptr %62, align 8
  %64 = zext i32 %.068.lcssa to i64
  %65 = getelementptr inbounds nuw %struct.VuDevRegion, ptr %63, i64 %64
  %66 = getelementptr inbounds nuw i8, ptr %65, i64 40
  %67 = load i32, ptr %9, align 4
  %68 = sub i32 %67, %.068.lcssa
  %69 = zext i32 %68 to i64
  %70 = mul nuw nsw i64 %69, 40
  call void @llvm.memmove.p0.p0.i64(ptr nonnull align 8 %66, ptr align 8 %65, i64 %70, i1 false)
  %71 = load i64, ptr %1, align 8
  store i64 %71, ptr %65, align 8
  %72 = load i64, ptr %6, align 8
  %73 = getelementptr inbounds nuw i8, ptr %65, i64 8
  store i64 %72, ptr %73, align 8
  %74 = getelementptr inbounds nuw i8, ptr %1, i64 16
  %75 = load i64, ptr %74, align 8
  %76 = getelementptr inbounds nuw i8, ptr %65, i64 16
  store i64 %75, ptr %76, align 8
  %77 = ptrtoint ptr %52 to i64
  %78 = getelementptr inbounds nuw i8, ptr %65, i64 32
  store i64 %77, ptr %78, align 8
  %79 = getelementptr inbounds nuw i8, ptr %65, i64 24
  store i64 %.066, ptr %79, align 8
  %80 = load i32, ptr %9, align 4
  %81 = add i32 %80, 1
  store i32 %81, ptr %9, align 4
  %82 = load i8, ptr %12, align 4, !range !5, !noundef !6
  %83 = trunc nuw i8 %82 to i1
  br i1 %83, label %84, label %88

84:                                               ; preds = %58
  %85 = load i64, ptr %78, align 8
  %86 = load i64, ptr %79, align 8
  %87 = add i64 %86, %85
  store i64 %87, ptr %74, align 8
  br label %88

88:                                               ; preds = %.thread, %58, %84, %54
  ret void
}